target datalayout = "e-m:e-p270:32:32-p271:32:32-p272:64:64-i64:64-i128:128-f80:128-n8:16:32:64-S128"
target triple = "x86_64-pc-linux-gnu"

%"class.std::shared_ptr" = type { %"class.std::__shared_ptr" }
%"class.std::__shared_ptr" = type { ptr, %"class.std::__shared_count" }
%"class.std::__shared_count" = type { ptr }
%"class.open_spiel::crazy_eights::CrazyEightsState" = type { %"class.open_spiel::State.base", i32, i32, i32, i8, i8, i8, i32, i32, i32, i32, i32, i32, i32, i8, i32, i8, i32, i32, i32, i32, i8, %"class.std::vector.15", %"struct.std::array", %"class.std::vector.20" }
%"class.open_spiel::State.base" = type <{ ptr, %"class.std::shared_ptr", i32, i32, %"class.std::vector", i32 }>
%"class.std::vector" = type { %"struct.std::_Vector_base" }
%"struct.std::_Vector_base" = type { %"struct.std::_Vector_base<open_spiel::State::PlayerAction, std::allocator<open_spiel::State::PlayerAction>>::_Vector_impl" }
%"struct.std::_Vector_base<open_spiel::State::PlayerAction, std::allocator<open_spiel::State::PlayerAction>>::_Vector_impl" = type { %"struct.std::_Vector_base<open_spiel::State::PlayerAction, std::allocator<open_spiel::State::PlayerAction>>::_Vector_impl_data" }
%"struct.std::_Vector_base<open_spiel::State::PlayerAction, std::allocator<open_spiel::State::PlayerAction>>::_Vector_impl_data" = type { ptr, ptr, ptr }
%"class.std::vector.15" = type { %"struct.std::_Vector_base.16" }
%"struct.std::_Vector_base.16" = type { %"struct.std::_Vector_base<double, std::allocator<double>>::_Vector_impl" }
%"struct.std::_Vector_base<double, std::allocator<double>>::_Vector_impl" = type { %"struct.std::_Vector_base<double, std::allocator<double>>::_Vector_impl_data" }
%"struct.std::_Vector_base<double, std::allocator<double>>::_Vector_impl_data" = type { ptr, ptr, ptr }
%"struct.std::array" = type { [52 x i32] }
%"class.std::vector.20" = type { %"struct.std::_Vector_base.21" }
%"struct.std::_Vector_base.21" = type { %"struct.std::_Vector_base<std::vector<int>, std::allocator<std::vector<int>>>::_Vector_impl" }
%"struct.std::_Vector_base<std::vector<int>, std::allocator<std::vector<int>>>::_Vector_impl" = type { %"struct.std::_Vector_base<std::vector<int>, std::allocator<std::vector<int>>>::_Vector_impl_data" }
%"struct.std::_Vector_base<std::vector<int>, std::allocator<std::vector<int>>>::_Vector_impl_data" = type { ptr, ptr, ptr }

; Function Attrs: mustprogress nounwind uwtable
define noundef i32 @_ZNK10open_spiel12crazy_eights16CrazyEightsState13CurrentPlayerEv(ptr noundef nonnull align 8 dereferenceable(392) %0) unnamed_addr #5 align 2 {
  %2 = alloca i32, align 4
  %3 = alloca ptr, align 8
  store ptr %0, ptr %3, align 8
  %4 = load ptr, ptr %3, align 8
  %5 = getelementptr inbounds nuw %"class.open_spiel::crazy_eights::CrazyEightsState", ptr %4, i32 0, i32 1
  %6 = load i32, ptr %5, align 4
  %7 = icmp eq i32 %6, 0
  br i1 %7, label %8, label %9

8:                                                ; preds = %1
  store i32 -1, ptr %2, align 4
  br label %17

9:                                                ; preds = %1
  %10 = getelementptr inbounds nuw %"class.open_spiel::crazy_eights::CrazyEightsState", ptr %4, i32 0, i32 1
  %11 = load i32, ptr %10, align 4
  %12 = icmp eq i32 %11, 2
  br i1 %12, label %13, label %14

13:                                               ; preds = %9
  store i32 -4, ptr %2, align 4
  br label %17

14:                                               ; preds = %9
  %15 = getelementptr inbounds nuw %"class.open_spiel::crazy_eights::CrazyEightsState", ptr %4, i32 0, i32 2
  %16 = load i32, ptr %15, align 8
  store i32 %16, ptr %2, align 4
  br label %17

17:                                               ; preds = %14, %13, %8
  %18 = load i32, ptr %2, align 4
  ret i32 %18
}